; Function Attrs: mustprogress uwtable
define void @_ZN7logging12CloseLogFileEv() local_unnamed_addr #0 personality ptr @__gxx_personality_v0 {
  %1 = load i32, ptr @_ZN7logging12_GLOBAL__N_111LoggingLock13lock_log_fileE, align 4, !tbaa !80
  %2 = icmp eq i32 %1, 0
  br i1 %2, label %3, label %5

3:                                                ; preds = %0
  %4 = tail call i32 @pthread_mutex_lock(ptr noundef nonnull @_ZN7logging12_GLOBAL__N_111LoggingLock9log_mutexE) #24
  br label %_ZN7logging12_GLOBAL__N_111LoggingLockC2Ev.exit

5:                                                ; preds = %0
  %6 = load ptr, ptr @_ZN7logging12_GLOBAL__N_111LoggingLock8log_lockE, align 8, !tbaa !81
  tail call void @_ZN4base8internal8LockImpl4LockEv(ptr noundef nonnull align 8 dereferenceable(40) %6)
  br label %_ZN7logging12_GLOBAL__N_111LoggingLockC2Ev.exit

_ZN7logging12_GLOBAL__N_111LoggingLockC2Ev.exit:  ; preds = %3, %5
  %7 = load ptr, ptr @_ZN7logging12_GLOBAL__N_110g_log_fileE, align 8, !tbaa !83
  %.not.i = icmp eq ptr %7, null
  br i1 %.not.i, label %_ZN7logging12_GLOBAL__N_120CloseLogFileUnlockedEv.exit, label %8

8:                                                ; preds = %_ZN7logging12_GLOBAL__N_111LoggingLockC2Ev.exit
  %9 = tail call i32 @fclose(ptr noundef nonnull %7)
  store ptr null, ptr @_ZN7logging12_GLOBAL__N_110g_log_fileE, align 8, !tbaa !83
  br label %_ZN7logging12_GLOBAL__N_120CloseLogFileUnlockedEv.exit

_ZN7logging12_GLOBAL__N_120CloseLogFileUnlockedEv.exit: ; preds = %8, %_ZN7logging12_GLOBAL__N_111LoggingLockC2Ev.exit
  %10 = load i32, ptr @_ZN7logging12_GLOBAL__N_111LoggingLock13lock_log_fileE, align 4, !tbaa !80
  %11 = icmp eq i32 %10, 0
  br i1 %11, label %12, label %14

12:                                               ; preds = %_ZN7logging12_GLOBAL__N_120CloseLogFileUnlockedEv.exit
  %13 = tail call i32 @pthread_mutex_unlock(ptr noundef nonnull @_ZN7logging12_GLOBAL__N_111LoggingLock9log_mutexE) #24
  br label %_ZN7logging12_GLOBAL__N_111LoggingLockD2Ev.exit

14:                                               ; preds = %_ZN7logging12_GLOBAL__N_120CloseLogFileUnlockedEv.exit
  %15 = load ptr, ptr @_ZN7logging12_GLOBAL__N_111LoggingLock8log_lockE, align 8, !tbaa !81
  invoke void @_ZN4base8internal8LockImpl6UnlockEv(ptr noundef nonnull align 8 dereferenceable(40) %15)
          to label %_ZN7logging12_GLOBAL__N_111LoggingLockD2Ev.exit unwind label %16

16:                                               ; preds = %14
  %17 = landingpad { ptr, i32 }
          catch ptr null
  %18 = extractvalue { ptr, i32 } %17, 0
  tail call void @__clang_call_terminate(ptr %18) #27
  unreachable

_ZN7logging12_GLOBAL__N_111LoggingLockD2Ev.exit:  ; preds = %12, %14
  ret void
}